target datalayout = "e-m:e-p270:32:32-p271:32:32-p272:64:64-i64:64-i128:128-f80:128-n8:16:32:64-S128"
target triple = "x86_64-pc-linux-gnu"

@bio_s_out = internal global ptr null, align 8
@s_debug = internal global i32 0, align 4

; Function Attrs: nounwind uwtable
define internal i64 @count_reads_callback(ptr noundef %0, i32 noundef %1, ptr noundef %2, i64 noundef %3, i32 noundef %4, i64 noundef %5, i32 noundef %6, ptr noundef %7) #0 {
  %9 = alloca ptr, align 8
  %10 = alloca i32, align 4
  %11 = alloca ptr, align 8
  %12 = alloca i64, align 8
  %13 = alloca i32, align 4
  %14 = alloca i64, align 8
  %15 = alloca i32, align 4
  %16 = alloca ptr, align 8
  %17 = alloca ptr, align 8
  store ptr %0, ptr %9, align 8, !tbaa !35
  store i32 %1, ptr %10, align 4, !tbaa !4
  store ptr %2, ptr %11, align 8, !tbaa !31
  store i64 %3, ptr %12, align 8, !tbaa !54
  store i32 %4, ptr %13, align 4, !tbaa !4
  store i64 %5, ptr %14, align 8, !tbaa !54
  store i32 %6, ptr %15, align 4, !tbaa !4
  store ptr %7, ptr %16, align 8, !tbaa !144
  call void @llvm.lifetime.start.p0(i64 8, ptr %17) #10
  %18 = load ptr, ptr %9, align 8, !tbaa !35
  %19 = call ptr @BIO_get_callback_arg(ptr noundef %18)
  store ptr %19, ptr %17, align 8, !tbaa !75
  %20 = load i32, ptr %10, align 4, !tbaa !4
  switch i32 %20, label %29 [
    i32 2, label %21
    i32 5, label %21
  ]

21:                                               ; preds = %8, %8
  %22 = load ptr, ptr %17, align 8, !tbaa !75
  %23 = icmp ne ptr %22, null
  br i1 %23, label %24, label %28

24:                                               ; preds = %21
  %25 = load ptr, ptr %17, align 8, !tbaa !75
  %26 = load i32, ptr %25, align 4, !tbaa !4
  %27 = add i32 %26, 1
  store i32 %27, ptr %25, align 4, !tbaa !4
  br label %28

28:                                               ; preds = %24, %21
  br label %30

29:                                               ; preds = %8
  br label %30

30:                                               ; preds = %29, %28
  %31 = load i32, ptr @s_debug, align 4, !tbaa !4
  %32 = icmp ne i32 %31, 0
  br i1 %32, label %33, label %48

33:                                               ; preds = %30
  %34 = load ptr, ptr %9, align 8, !tbaa !35
  %35 = load ptr, ptr @bio_s_out, align 8, !tbaa !35
  call void @BIO_set_callback_arg(ptr noundef %34, ptr noundef %35)
  %36 = load ptr, ptr %9, align 8, !tbaa !35
  %37 = load i32, ptr %10, align 4, !tbaa !4
  %38 = load ptr, ptr %11, align 8, !tbaa !31
  %39 = load i64, ptr %12, align 8, !tbaa !54
  %40 = load i32, ptr %13, align 4, !tbaa !4
  %41 = load i64, ptr %14, align 8, !tbaa !54
  %42 = load i32, ptr %15, align 4, !tbaa !4
  %43 = load ptr, ptr %16, align 8, !tbaa !144
  %44 = call i64 @bio_dump_callback(ptr noundef %36, i32 noundef %37, ptr noundef %38, i64 noundef %39, i32 noundef %40, i64 noundef %41, i32 noundef %42, ptr noundef %43)
  %45 = trunc i64 %44 to i32
  store i32 %45, ptr %15, align 4, !tbaa !4
  %46 = load ptr, ptr %9, align 8, !tbaa !35
  %47 = load ptr, ptr %17, align 8, !tbaa !75
  call void @BIO_set_callback_arg(ptr noundef %46, ptr noundef %47)
  br label %48

48:                                               ; preds = %33, %30
  %49 = load i32, ptr %15, align 4, !tbaa !4
  %50 = sext i32 %49 to i64
  call void @llvm.lifetime.end.p0(i64 8, ptr %17) #10
  ret i64 %50
}