; Function Attrs: nounwind uwtable
define internal range(i64 -2147483648, 2147483648) i64 @count_reads_callback(ptr noundef %0, i32 noundef %1, ptr noundef %2, i64 noundef %3, i32 noundef %4, i64 noundef %5, i32 noundef %6, ptr noundef %7) #0 {
  %9 = tail call ptr @BIO_get_callback_arg(ptr noundef %0) #14
  switch i32 %1, label %14 [
    i32 2, label %10
    i32 5, label %10
  ]

10:                                               ; preds = %8, %8
  %.not = icmp eq ptr %9, null
  br i1 %.not, label %14, label %11

11:                                               ; preds = %10
  %12 = load i32, ptr %9, align 4, !tbaa !13
  %13 = add i32 %12, 1
  store i32 %13, ptr %9, align 4, !tbaa !13
  br label %14

14:                                               ; preds = %8, %10, %11
  %.b = load i1, ptr @s_debug, align 4
  br i1 %.b, label %15, label %19

15:                                               ; preds = %14
  %16 = load ptr, ptr @bio_s_out, align 8, !tbaa !19
  tail call void @BIO_set_callback_arg(ptr noundef %0, ptr noundef %16) #14
  %17 = tail call i64 @bio_dump_callback(ptr noundef %0, i32 noundef %1, ptr noundef %2, i64 noundef %3, i32 noundef %4, i64 noundef %5, i32 noundef %6, ptr noundef %7) #14
  %18 = trunc i64 %17 to i32
  tail call void @BIO_set_callback_arg(ptr noundef %0, ptr noundef %9) #14
  br label %19

19:                                               ; preds = %15, %14
  %.0 = phi i32 [ %18, %15 ], [ %6, %14 ]
  %20 = sext i32 %.0 to i64
  ret i64 %20
}